(dp0
(I3
I15
tp1
I2311
s(I2
I18
tp2
I2023
s(I4
I18
tp3
I1998
s(I1
I17
tp4
I2150
s(I5
I19
tp5
I1959
s(I8
I19
tp6
I1944
s(I0
I16
tp7
I2257
s(I7
I16
tp8
I2230
s(I1
I14
tp9
I2326
s(I9
I18
tp10
I2064
s(I6
I17
tp11
I2136
s(I3
I17
tp12
I2159
s(I2
I14
tp13
I2328
s(I2
I19
tp14
I1950
s(I4
I15
tp15
I2310
s(I4
I19
tp16
I1929
s(I9
I15
tp17
I2336
s(I5
I18
tp18
I2000
s(I0
I17
tp19
I2151
s(I7
I19
tp20
I1960
s(I9
I17
tp21
I2193
s(I0
I14
tp22
I2327
s(I3
I16
tp23
I2265
s(I8
I16
tp24
I2241
s(I8
I15
tp25
I2337
s(I2
I16
tp26
I2264
s(I9
I14
tp27
I2334
s(I0
I18
tp28
I2015
s(I7
I18
tp29
I2006
s(I4
I16
tp30
I2223
s(I9
I16
tp31
I2239
s(I3
I19
tp32
I1928
s(I8
I17
tp33
I2192
s(I1
I15
tp34
I2319
s(I2
I17
tp35
I2152
s(I6
I19
tp36
I1958
s(I9
I13
tp37
I2335
s(I0
I15
tp38
I2318
s(I5
I16
tp39
I2222
s(I0
I19
tp40
I1936
s(I4
I17
tp41
I2144
s(I1
I18
tp42
I1977
s(I3
I18
tp43
I2022
s(I8
I18
tp44
I2047
s(I7
I17
tp45
I2134
s(I2
I15
tp46
I2329
s(I9
I19
tp47
I2062
s(I6
I16
tp48
I2231
s.